target datalayout = "e-m:e-p270:32:32-p271:32:32-p272:64:64-i64:64-i128:128-f80:128-n8:16:32:64-S128"
target triple = "x86_64-pc-linux-gnu"

%struct.http2_session_data = type { %struct.http2_stream_data, ptr, ptr, ptr, ptr }
%struct.http2_stream_data = type { ptr, ptr, ptr, i32, i32 }

@.str.10 = private unnamed_addr constant [16 x i8] c"Fatal error: %s\00", align 1

; Function Attrs: nounwind uwtable
define internal i32 @session_send(ptr noundef %0) #0 {
  %2 = alloca i32, align 4
  %3 = alloca ptr, align 8
  %4 = alloca i32, align 4
  %5 = alloca i32, align 4
  store ptr %0, ptr %3, align 8, !tbaa !44
  call void @llvm.lifetime.start.p0(i64 4, ptr %4) #11
  %6 = load ptr, ptr %3, align 8, !tbaa !44
  %7 = getelementptr inbounds nuw %struct.http2_session_data, ptr %6, i32 0, i32 3
  %8 = load ptr, ptr %7, align 8, !tbaa !55
  %9 = call i32 @nghttp2_session_send(ptr noundef %8)
  store i32 %9, ptr %4, align 4, !tbaa !4
  %10 = load i32, ptr %4, align 4, !tbaa !4
  %11 = icmp ne i32 %10, 0
  br i1 %11, label %12, label %15

12:                                               ; preds = %1
  %13 = load i32, ptr %4, align 4, !tbaa !4
  %14 = call ptr @nghttp2_strerror(i32 noundef %13)
  call void (ptr, ...) @warnx(ptr noundef @.str.10, ptr noundef %14)
  store i32 -1, ptr %2, align 4
  store i32 1, ptr %5, align 4
  br label %16

15:                                               ; preds = %1
  store i32 0, ptr %2, align 4
  store i32 1, ptr %5, align 4
  br label %16

16:                                               ; preds = %15, %12
  call void @llvm.lifetime.end.p0(i64 4, ptr %4) #11
  %17 = load i32, ptr %2, align 4
  ret i32 %17
}

; Function Attrs: nounwind uwtable
define internal void @writecb(ptr noundef %0, ptr noundef %1) #0 {
  %3 = alloca ptr, align 8
  %4 = alloca ptr, align 8
  %5 = alloca ptr, align 8
  %6 = alloca i32, align 4
  store ptr %0, ptr %3, align 8, !tbaa !54
  store ptr %1, ptr %4, align 8, !tbaa !42
  call void @llvm.lifetime.start.p0(i64 8, ptr %5) #11
  %7 = load ptr, ptr %4, align 8, !tbaa !42
  store ptr %7, ptr %5, align 8, !tbaa !44
  %8 = load ptr, ptr %3, align 8, !tbaa !54
  %9 = call ptr @bufferevent_get_output(ptr noundef %8)
  %10 = call i64 @evbuffer_get_length(ptr noundef %9)
  %11 = icmp ugt i64 %10, 0
  br i1 %11, label %12, label %13

12:                                               ; preds = %2
  store i32 1, ptr %6, align 4
  br label %34

13:                                               ; preds = %2
  %14 = load ptr, ptr %5, align 8, !tbaa !44
  %15 = getelementptr inbounds nuw %struct.http2_session_data, ptr %14, i32 0, i32 3
  %16 = load ptr, ptr %15, align 8, !tbaa !55
  %17 = call i32 @nghttp2_session_want_read(ptr noundef %16)
  %18 = icmp eq i32 %17, 0
  br i1 %18, label %19, label %27

19:                                               ; preds = %13
  %20 = load ptr, ptr %5, align 8, !tbaa !44
  %21 = getelementptr inbounds nuw %struct.http2_session_data, ptr %20, i32 0, i32 3
  %22 = load ptr, ptr %21, align 8, !tbaa !55
  %23 = call i32 @nghttp2_session_want_write(ptr noundef %22)
  %24 = icmp eq i32 %23, 0
  br i1 %24, label %25, label %27

25:                                               ; preds = %19
  %26 = load ptr, ptr %5, align 8, !tbaa !44
  call void @delete_http2_session_data(ptr noundef %26)
  store i32 1, ptr %6, align 4
  br label %34

27:                                               ; preds = %19, %13
  %28 = load ptr, ptr %5, align 8, !tbaa !44
  %29 = call i32 @session_send(ptr noundef %28)
  %30 = icmp ne i32 %29, 0
  br i1 %30, label %31, label %33

31:                                               ; preds = %27
  %32 = load ptr, ptr %5, align 8, !tbaa !44
  call void @delete_http2_session_data(ptr noundef %32)
  store i32 1, ptr %6, align 4
  br label %34

33:                                               ; preds = %27
  store i32 0, ptr %6, align 4
  br label %34

34:                                               ; preds = %33, %31, %25, %12
  call void @llvm.lifetime.end.p0(i64 8, ptr %5) #11
  %35 = load i32, ptr %6, align 4
  switch i32 %35, label %37 [
    i32 0, label %36
    i32 1, label %36
  ]

36:                                               ; preds = %34, %34
  ret void

37:                                               ; preds = %34
  unreachable
}