; Function Attrs: nounwind uwtable
define internal void @writecb(ptr noundef %0, ptr noundef captures(none) %1) #0 {
  %3 = tail call ptr @bufferevent_get_output(ptr noundef %0) #21
  %4 = tail call i64 @evbuffer_get_length(ptr noundef %3) #21
  %.not = icmp eq i64 %4, 0
  br i1 %.not, label %5, label %session_send.exit.thread

5:                                                ; preds = %2
  %6 = getelementptr inbounds nuw i8, ptr %1, i64 48
  %7 = load ptr, ptr %6, align 8, !tbaa !38
  %8 = tail call i32 @nghttp2_session_want_read(ptr noundef %7) #21
  %9 = icmp eq i32 %8, 0
  br i1 %9, label %10, label %14

10:                                               ; preds = %5
  %11 = load ptr, ptr %6, align 8, !tbaa !38
  %12 = tail call i32 @nghttp2_session_want_write(ptr noundef %11) #21
  %13 = icmp eq i32 %12, 0
  br i1 %13, label %session_send.exit.thread.sink.split, label %14

14:                                               ; preds = %10, %5
  %.val = load ptr, ptr %6, align 8, !tbaa !38
  %15 = tail call i32 @nghttp2_session_send(ptr noundef %.val) #21
  %.not.i = icmp eq i32 %15, 0
  br i1 %.not.i, label %session_send.exit.thread, label %16

16:                                               ; preds = %14
  %17 = tail call ptr @nghttp2_strerror(i32 noundef %15) #21
  tail call void (ptr, ...) @warnx(ptr noundef nonnull @.str.10, ptr noundef %17) #21
  br label %session_send.exit.thread.sink.split

session_send.exit.thread.sink.split:              ; preds = %10, %16
  tail call fastcc void @delete_http2_session_data(ptr noundef nonnull %1)
  br label %session_send.exit.thread

session_send.exit.thread:                         ; preds = %session_send.exit.thread.sink.split, %14, %2
  ret void
}